target datalayout = "e-m:e-p270:32:32-p271:32:32-p272:64:64-i64:64-i128:128-f80:128-n8:16:32:64-S128"
target triple = "x86_64-unknown-linux-gnu"

%struct.nbcon_state = type { %union.anon }
%union.anon = type { i32 }

; Function Attrs: fn_ret_thunk_extern nounwind null_pointer_is_valid
define dso_local noundef zeroext i1 @nbcon_exit_unsafe(ptr nocapture noundef %0) #2 align 16 {
  %2 = alloca %struct.nbcon_state, align 4
  %3 = load ptr, ptr %0, align 8
  call void @llvm.lifetime.start.p0(i64 4, ptr nonnull %2) #8
  store i32 0, ptr %2, align 4, !annotation !5
  %4 = getelementptr inbounds i8, ptr %3, i64 136
  %5 = load volatile i32, ptr %4, align 4
  store i32 %5, ptr %2, align 4
  %6 = and i32 %5, 32
  %7 = icmp eq i32 %6, 0
  br i1 %7, label %8, label %22

8:                                                ; preds = %17, %1
  %9 = phi i32 [ %18, %17 ], [ %5, %1 ]
  %10 = call fastcc zeroext i1 @nbcon_context_can_proceed(ptr noundef %0, ptr noundef nonnull %2)
  br i1 %10, label %11, label %24

11:                                               ; preds = %8
  %12 = and i32 %9, -49
  %13 = tail call { i8, i32 } asm sideeffect ".pushsection .smp_locks,\22a\22\0A.balign 4\0A.long 671f - .\0A.popsection\0A671:\0A\09lock; cmpxchgl $3, $1\0A\09/* output condition code z*/\0A", "={@ccz},=*m,={ax},r,*m,2,~{memory},~{dirflag},~{fpsr},~{flags}"(ptr elementtype(i32) %4, i32 %12, ptr elementtype(i32) %4, i32 %9) #8, !srcloc !12
  %14 = extractvalue { i8, i32 } %13, 0
  %15 = icmp ult i8 %14, 2
  tail call void @llvm.assume(i1 %15)
  %16 = icmp eq i8 %14, 0
  br i1 %16, label %17, label %21, !prof !13

17:                                               ; preds = %11
  %18 = extractvalue { i8, i32 } %13, 1
  store i32 %18, ptr %2, align 4
  %19 = and i32 %18, 32
  %20 = icmp eq i32 %19, 0
  br i1 %20, label %8, label %22, !llvm.loop !17

21:                                               ; preds = %11
  store i32 %12, ptr %2, align 4
  br label %22

22:                                               ; preds = %21, %17, %1
  %23 = call fastcc zeroext i1 @nbcon_context_can_proceed(ptr noundef %0, ptr noundef nonnull %2)
  br label %24

24:                                               ; preds = %22, %8
  %25 = phi i1 [ %23, %22 ], [ false, %8 ]
  call void @llvm.lifetime.end.p0(i64 4, ptr nonnull %2) #8
  ret i1 %25
}