; Function Attrs: fn_ret_thunk_extern nounwind null_pointer_is_valid
define dso_local noundef zeroext i1 @nbcon_exit_unsafe(ptr nocapture noundef %0) #1 align 16 {
  %2 = load ptr, ptr %0, align 8
  %3 = getelementptr inbounds i8, ptr %2, i64 136
  %4 = load volatile i32, ptr %3, align 4
  %5 = and i32 %4, 32
  %6 = icmp eq i32 %5, 0
  br i1 %6, label %.preheader, label %.loopexit3

.preheader:                                       ; preds = %1, %14
  %.sroa.0.0 = phi i32 [ %15, %14 ], [ %4, %1 ]
  %7 = tail call fastcc zeroext i1 @nbcon_context_can_proceed(ptr noundef %0, i32 %.sroa.0.0)
  br i1 %7, label %8, label %.loopexit

8:                                                ; preds = %.preheader
  %9 = and i32 %.sroa.0.0, -49
  %10 = tail call { i8, i32 } asm sideeffect ".pushsection .smp_locks,\22a\22\0A.balign 4\0A.long 671f - .\0A.popsection\0A671:\0A\09lock; cmpxchgl $3, $1\0A\09/* output condition code z*/\0A", "={@ccz},=*m,={ax},r,*m,2,~{memory},~{dirflag},~{fpsr},~{flags}"(ptr elementtype(i32) %3, i32 %9, ptr elementtype(i32) %3, i32 %.sroa.0.0) #7, !srcloc !11
  %11 = extractvalue { i8, i32 } %10, 0
  %12 = icmp ult i8 %11, 2
  tail call void @llvm.assume(i1 %12)
  %13 = icmp eq i8 %11, 0
  br i1 %13, label %14, label %.loopexit3, !prof !12

14:                                               ; preds = %8
  %15 = extractvalue { i8, i32 } %10, 1
  %16 = and i32 %15, 32
  %17 = icmp eq i32 %16, 0
  br i1 %17, label %.preheader, label %.loopexit3, !llvm.loop !16

.loopexit3:                                       ; preds = %8, %14, %1
  %.sroa.0.1 = phi i32 [ %4, %1 ], [ %9, %8 ], [ %15, %14 ]
  %18 = tail call fastcc zeroext i1 @nbcon_context_can_proceed(ptr noundef %0, i32 %.sroa.0.1)
  br label %.loopexit

.loopexit:                                        ; preds = %.preheader, %.loopexit3
  %19 = phi i1 [ %18, %.loopexit3 ], [ false, %.preheader ]
  ret i1 %19
}